; Function Attrs: mustprogress nounwind uwtable
define hidden void @_ZN2cv10PAMDecoderD2Ev(ptr noundef nonnull align 8 dereferenceable(456) %0) unnamed_addr #4 align 2 personality ptr @__gxx_personality_v0 {
  %2 = getelementptr inbounds nuw i8, ptr %0, i64 368
  invoke void @_ZN2cv11RBaseStream5closeEv(ptr noundef nonnull align 8 dereferenceable(57) %2)
          to label %3 unwind label %4

3:                                                ; preds = %1
  tail call void @_ZN2cv12RLByteStreamD1Ev(ptr noundef nonnull align 8 dereferenceable(57) %2) #23
  tail call void @_ZN2cv16BaseImageDecoderD2Ev(ptr noundef nonnull align 8 dereferenceable(368) %0) #23
  ret void

4:                                                ; preds = %1
  %5 = landingpad { ptr, i32 }
          catch ptr null
  %6 = extractvalue { ptr, i32 } %5, 0
  tail call void @__clang_call_terminate(ptr %6) #25
  unreachable
}